target datalayout = "e-m:e-p270:32:32-p271:32:32-p272:64:64-i64:64-i128:128-f80:128-n8:16:32:64-S128"
target triple = "x86_64-pc-linux-gnu"

%struct.jpeg_decompress_struct = type { ptr, ptr, ptr, ptr, i32, i32, ptr, i32, i32, i32, i32, i32, i32, i32, double, i32, i32, i32, i32, i32, i32, i32, i32, i32, i32, i32, i32, i32, i32, i32, i32, i32, i32, ptr, i32, i32, i32, i32, i32, ptr, [4 x ptr], [4 x ptr], [4 x ptr], i32, ptr, i32, i32, [16 x i8], [16 x i8], [16 x i8], i32, i32, i8, i8, i8, i16, i16, i32, i8, i32, ptr, i32, i32, i32, i32, ptr, i32, [4 x ptr], i32, i32, i32, [10 x i32], i32, i32, i32, i32, i32, ptr, ptr, ptr, ptr, ptr, ptr, ptr, ptr, ptr, ptr, ptr }
%struct.ppm_dest_struct = type { %struct.djpeg_dest_struct, ptr, ptr, i64, i32 }
%struct.djpeg_dest_struct = type { ptr, ptr, ptr, ptr, ptr, ptr, ptr, ptr, i32 }

; Function Attrs: alwaysinline nounwind uwtable
define internal void @cmyk_to_rgb(i32 noundef %0, i8 noundef zeroext %1, i8 noundef zeroext %2, i8 noundef zeroext %3, i8 noundef zeroext %4, ptr noundef %5, ptr noundef %6, ptr noundef %7) #4 {
  %9 = alloca i32, align 4
  %10 = alloca i8, align 1
  %11 = alloca i8, align 1
  %12 = alloca i8, align 1
  %13 = alloca i8, align 1
  %14 = alloca ptr, align 8
  %15 = alloca ptr, align 8
  %16 = alloca ptr, align 8
  store i32 %0, ptr %9, align 4, !tbaa !68
  store i8 %1, ptr %10, align 1, !tbaa !37
  store i8 %2, ptr %11, align 1, !tbaa !37
  store i8 %3, ptr %12, align 1, !tbaa !37
  store i8 %4, ptr %13, align 1, !tbaa !37
  store ptr %5, ptr %14, align 8, !tbaa !69
  store ptr %6, ptr %15, align 8, !tbaa !69
  store ptr %7, ptr %16, align 8, !tbaa !69
  %17 = load i8, ptr %10, align 1, !tbaa !37
  %18 = uitofp i8 %17 to double
  %19 = load i8, ptr %13, align 1, !tbaa !37
  %20 = uitofp i8 %19 to double
  %21 = fmul double %18, %20
  %22 = load i32, ptr %9, align 4, !tbaa !68
  %23 = sitofp i32 %22 to double
  %24 = fdiv double %21, %23
  %25 = fadd double %24, 5.000000e-01
  %26 = fptoui double %25 to i8
  %27 = load ptr, ptr %14, align 8, !tbaa !69
  store i8 %26, ptr %27, align 1, !tbaa !37
  %28 = load i8, ptr %11, align 1, !tbaa !37
  %29 = uitofp i8 %28 to double
  %30 = load i8, ptr %13, align 1, !tbaa !37
  %31 = uitofp i8 %30 to double
  %32 = fmul double %29, %31
  %33 = load i32, ptr %9, align 4, !tbaa !68
  %34 = sitofp i32 %33 to double
  %35 = fdiv double %32, %34
  %36 = fadd double %35, 5.000000e-01
  %37 = fptoui double %36 to i8
  %38 = load ptr, ptr %15, align 8, !tbaa !69
  store i8 %37, ptr %38, align 1, !tbaa !37
  %39 = load i8, ptr %12, align 1, !tbaa !37
  %40 = uitofp i8 %39 to double
  %41 = load i8, ptr %13, align 1, !tbaa !37
  %42 = uitofp i8 %41 to double
  %43 = fmul double %40, %42
  %44 = load i32, ptr %9, align 4, !tbaa !68
  %45 = sitofp i32 %44 to double
  %46 = fdiv double %43, %45
  %47 = fadd double %46, 5.000000e-01
  %48 = fptoui double %47 to i8
  %49 = load ptr, ptr %16, align 8, !tbaa !69
  store i8 %48, ptr %49, align 1, !tbaa !37
  ret void
}

; Function Attrs: nounwind uwtable
define internal void @put_cmyk(ptr noundef %0, ptr noundef %1, i32 noundef %2) #0 {
  %4 = alloca ptr, align 8
  %5 = alloca ptr, align 8
  %6 = alloca i32, align 4
  %7 = alloca ptr, align 8
  %8 = alloca ptr, align 8
  %9 = alloca ptr, align 8
  %10 = alloca i32, align 4
  %11 = alloca i8, align 1
  %12 = alloca i8, align 1
  %13 = alloca i8, align 1
  %14 = alloca i8, align 1
  %15 = alloca i8, align 1
  %16 = alloca i8, align 1
  %17 = alloca i8, align 1
  store ptr %0, ptr %4, align 8, !tbaa !4
  store ptr %1, ptr %5, align 8, !tbaa !61
  store i32 %2, ptr %6, align 4, !tbaa !68
  call void @llvm.lifetime.start.p0(i64 8, ptr %7) #6
  %18 = load ptr, ptr %5, align 8, !tbaa !61
  store ptr %18, ptr %7, align 8, !tbaa !42
  call void @llvm.lifetime.start.p0(i64 8, ptr %8) #6
  call void @llvm.lifetime.start.p0(i64 8, ptr %9) #6
  call void @llvm.lifetime.start.p0(i64 4, ptr %10) #6
  %19 = load ptr, ptr %7, align 8, !tbaa !42
  %20 = getelementptr inbounds nuw %struct.ppm_dest_struct, ptr %19, i32 0, i32 0
  %21 = getelementptr inbounds nuw %struct.djpeg_dest_struct, ptr %20, i32 0, i32 5
  %22 = load ptr, ptr %21, align 8, !tbaa !57
  %23 = getelementptr inbounds ptr, ptr %22, i64 0
  %24 = load ptr, ptr %23, align 8, !tbaa !69
  store ptr %24, ptr %9, align 8, !tbaa !69
  %25 = load ptr, ptr %7, align 8, !tbaa !42
  %26 = getelementptr inbounds nuw %struct.ppm_dest_struct, ptr %25, i32 0, i32 1
  %27 = load ptr, ptr %26, align 8, !tbaa !51
  store ptr %27, ptr %8, align 8, !tbaa !69
  %28 = load ptr, ptr %4, align 8, !tbaa !4
  %29 = getelementptr inbounds nuw %struct.jpeg_decompress_struct, ptr %28, i32 0, i32 27
  %30 = load i32, ptr %29, align 8, !tbaa !55
  store i32 %30, ptr %10, align 4, !tbaa !68
  br label %31

31:                                               ; preds = %65, %3
  %32 = load i32, ptr %10, align 4, !tbaa !68
  %33 = icmp ugt i32 %32, 0
  br i1 %33, label %34, label %68

34:                                               ; preds = %31
  call void @llvm.lifetime.start.p0(i64 1, ptr %11) #6
  call void @llvm.lifetime.start.p0(i64 1, ptr %12) #6
  call void @llvm.lifetime.start.p0(i64 1, ptr %13) #6
  call void @llvm.lifetime.start.p0(i64 1, ptr %14) #6
  %35 = load ptr, ptr %9, align 8, !tbaa !69
  %36 = getelementptr inbounds nuw i8, ptr %35, i32 1
  store ptr %36, ptr %9, align 8, !tbaa !69
  %37 = load i8, ptr %35, align 1, !tbaa !37
  store i8 %37, ptr %14, align 1, !tbaa !37
  call void @llvm.lifetime.start.p0(i64 1, ptr %15) #6
  %38 = load ptr, ptr %9, align 8, !tbaa !69
  %39 = getelementptr inbounds nuw i8, ptr %38, i32 1
  store ptr %39, ptr %9, align 8, !tbaa !69
  %40 = load i8, ptr %38, align 1, !tbaa !37
  store i8 %40, ptr %15, align 1, !tbaa !37
  call void @llvm.lifetime.start.p0(i64 1, ptr %16) #6
  %41 = load ptr, ptr %9, align 8, !tbaa !69
  %42 = getelementptr inbounds nuw i8, ptr %41, i32 1
  store ptr %42, ptr %9, align 8, !tbaa !69
  %43 = load i8, ptr %41, align 1, !tbaa !37
  store i8 %43, ptr %16, align 1, !tbaa !37
  call void @llvm.lifetime.start.p0(i64 1, ptr %17) #6
  %44 = load ptr, ptr %9, align 8, !tbaa !69
  %45 = getelementptr inbounds nuw i8, ptr %44, i32 1
  store ptr %45, ptr %9, align 8, !tbaa !69
  %46 = load i8, ptr %44, align 1, !tbaa !37
  store i8 %46, ptr %17, align 1, !tbaa !37
  %47 = load ptr, ptr %4, align 8, !tbaa !4
  %48 = getelementptr inbounds nuw %struct.jpeg_decompress_struct, ptr %47, i32 0, i32 43
  %49 = load i32, ptr %48, align 8, !tbaa !9
  %50 = shl i32 1, %49
  %51 = sub nsw i32 %50, 1
  %52 = load i8, ptr %14, align 1, !tbaa !37
  %53 = load i8, ptr %15, align 1, !tbaa !37
  %54 = load i8, ptr %16, align 1, !tbaa !37
  %55 = load i8, ptr %17, align 1, !tbaa !37
  call void @cmyk_to_rgb(i32 noundef %51, i8 noundef zeroext %52, i8 noundef zeroext %53, i8 noundef zeroext %54, i8 noundef zeroext %55, ptr noundef %11, ptr noundef %12, ptr noundef %13)
  %56 = load i8, ptr %11, align 1, !tbaa !37
  %57 = load ptr, ptr %8, align 8, !tbaa !69
  %58 = getelementptr inbounds nuw i8, ptr %57, i32 1
  store ptr %58, ptr %8, align 8, !tbaa !69
  store i8 %56, ptr %57, align 1, !tbaa !37
  %59 = load i8, ptr %12, align 1, !tbaa !37
  %60 = load ptr, ptr %8, align 8, !tbaa !69
  %61 = getelementptr inbounds nuw i8, ptr %60, i32 1
  store ptr %61, ptr %8, align 8, !tbaa !69
  store i8 %59, ptr %60, align 1, !tbaa !37
  %62 = load i8, ptr %13, align 1, !tbaa !37
  %63 = load ptr, ptr %8, align 8, !tbaa !69
  %64 = getelementptr inbounds nuw i8, ptr %63, i32 1
  store ptr %64, ptr %8, align 8, !tbaa !69
  store i8 %62, ptr %63, align 1, !tbaa !37
  call void @llvm.lifetime.end.p0(i64 1, ptr %17) #6
  call void @llvm.lifetime.end.p0(i64 1, ptr %16) #6
  call void @llvm.lifetime.end.p0(i64 1, ptr %15) #6
  call void @llvm.lifetime.end.p0(i64 1, ptr %14) #6
  call void @llvm.lifetime.end.p0(i64 1, ptr %13) #6
  call void @llvm.lifetime.end.p0(i64 1, ptr %12) #6
  call void @llvm.lifetime.end.p0(i64 1, ptr %11) #6
  br label %65

65:                                               ; preds = %34
  %66 = load i32, ptr %10, align 4, !tbaa !68
  %67 = add i32 %66, -1
  store i32 %67, ptr %10, align 4, !tbaa !68
  br label %31, !llvm.loop !72

68:                                               ; preds = %31
  %69 = load ptr, ptr %7, align 8, !tbaa !42
  %70 = getelementptr inbounds nuw %struct.ppm_dest_struct, ptr %69, i32 0, i32 1
  %71 = load ptr, ptr %70, align 8, !tbaa !51
  %72 = load ptr, ptr %7, align 8, !tbaa !42
  %73 = getelementptr inbounds nuw %struct.ppm_dest_struct, ptr %72, i32 0, i32 3
  %74 = load i64, ptr %73, align 8, !tbaa !50
  %75 = load ptr, ptr %7, align 8, !tbaa !42
  %76 = getelementptr inbounds nuw %struct.ppm_dest_struct, ptr %75, i32 0, i32 0
  %77 = getelementptr inbounds nuw %struct.djpeg_dest_struct, ptr %76, i32 0, i32 4
  %78 = load ptr, ptr %77, align 8, !tbaa !63
  %79 = call i64 @fwrite(ptr noundef %71, i64 noundef 1, i64 noundef %74, ptr noundef %78)
  call void @llvm.lifetime.end.p0(i64 4, ptr %10) #6
  call void @llvm.lifetime.end.p0(i64 8, ptr %9) #6
  call void @llvm.lifetime.end.p0(i64 8, ptr %8) #6
  call void @llvm.lifetime.end.p0(i64 8, ptr %7) #6
  ret void
}