; Function Attrs: nofree nounwind uwtable
define internal void @put_cmyk(ptr noundef readonly captures(none) %0, ptr noundef readonly captures(none) %1, i32 %2) #3 {
  %4 = getelementptr inbounds nuw i8, ptr %1, i64 72
  %5 = getelementptr inbounds nuw i8, ptr %0, i64 136
  %6 = load i32, ptr %5, align 8, !tbaa !52
  %.not24 = icmp eq i32 %6, 0
  br i1 %.not24, label %._crit_edge, label %.lr.ph

.lr.ph:                                           ; preds = %3
  %7 = load ptr, ptr %4, align 8, !tbaa !48
  %8 = getelementptr inbounds nuw i8, ptr %1, i64 40
  %9 = load ptr, ptr %8, align 8, !tbaa !54
  %10 = load ptr, ptr %9, align 8, !tbaa !63
  %11 = getelementptr inbounds nuw i8, ptr %0, i64 296
  br label %12

12:                                               ; preds = %.lr.ph, %12
  %.027 = phi ptr [ %7, %.lr.ph ], [ %42, %12 ]
  %.02026 = phi ptr [ %10, %.lr.ph ], [ %19, %12 ]
  %.02125 = phi i32 [ %6, %.lr.ph ], [ %43, %12 ]
  %13 = getelementptr inbounds nuw i8, ptr %.02026, i64 1
  %14 = load i8, ptr %.02026, align 1, !tbaa !35
  %15 = getelementptr inbounds nuw i8, ptr %.02026, i64 2
  %16 = load i8, ptr %13, align 1, !tbaa !35
  %17 = getelementptr inbounds nuw i8, ptr %.02026, i64 3
  %18 = load i8, ptr %15, align 1, !tbaa !35
  %19 = getelementptr inbounds nuw i8, ptr %.02026, i64 4
  %20 = load i8, ptr %17, align 1, !tbaa !35
  %21 = load i32, ptr %11, align 8, !tbaa !4
  %notmask = shl nsw i32 -1, %21
  %22 = xor i32 %notmask, -1
  %23 = uitofp i8 %14 to double
  %24 = uitofp i8 %20 to double
  %25 = fmul double %23, %24
  %26 = uitofp nneg i32 %22 to double
  %27 = fdiv double %25, %26
  %28 = fadd double %27, 5.000000e-01
  %29 = fptoui double %28 to i8
  %30 = uitofp i8 %16 to double
  %31 = fmul double %30, %24
  %32 = fdiv double %31, %26
  %33 = fadd double %32, 5.000000e-01
  %34 = fptoui double %33 to i8
  %35 = uitofp i8 %18 to double
  %36 = fmul double %35, %24
  %37 = fdiv double %36, %26
  %38 = fadd double %37, 5.000000e-01
  %39 = fptoui double %38 to i8
  %40 = getelementptr inbounds nuw i8, ptr %.027, i64 1
  store i8 %29, ptr %.027, align 1, !tbaa !35
  %41 = getelementptr inbounds nuw i8, ptr %.027, i64 2
  store i8 %34, ptr %40, align 1, !tbaa !35
  %42 = getelementptr inbounds nuw i8, ptr %.027, i64 3
  store i8 %39, ptr %41, align 1, !tbaa !35
  %43 = add i32 %.02125, -1
  %.not = icmp eq i32 %43, 0
  br i1 %.not, label %._crit_edge, label %12, !llvm.loop !67

._crit_edge:                                      ; preds = %12, %3
  %44 = load ptr, ptr %4, align 8, !tbaa !48
  %45 = getelementptr inbounds nuw i8, ptr %1, i64 88
  %46 = load i64, ptr %45, align 8, !tbaa !47
  %47 = getelementptr inbounds nuw i8, ptr %1, i64 32
  %48 = load ptr, ptr %47, align 8, !tbaa !58
  %49 = tail call i64 @fwrite(ptr noundef %44, i64 noundef 1, i64 noundef %46, ptr noundef %48)
  ret void
}